; Function Attrs: nounwind uwtable
define range(i32 -1, -2147483648) i32 @H5Sselect_shape_same(i64 noundef %0, i64 noundef %1) local_unnamed_addr #3 {
  %3 = load i8, ptr @H5_libinit_g, align 1
  %4 = trunc i8 %3 to i1
  %5 = load i8, ptr @H5_libterm_g, align 1
  %6 = trunc i8 %5 to i1
  %7 = select i1 %4, i1 true, i1 %6
  br i1 %7, label %15, label %8

8:                                                ; preds = %2
  %9 = tail call i32 @H5_init_library() #7
  %10 = icmp slt i32 %9, 0
  br i1 %10, label %11, label %15

11:                                               ; preds = %8
  %12 = load i64, ptr @H5E_FUNC_g, align 8
  %13 = load i64, ptr @H5E_CANTINIT_g, align 8
  %14 = tail call i32 (ptr, ptr, i32, i64, i64, ptr, ...) @H5E_printf_stack(ptr noundef nonnull @.str.1, ptr noundef nonnull @__func__.H5Sselect_shape_same, i32 noundef 1878, i64 noundef %12, i64 noundef %13, ptr noundef nonnull @.str.2) #7
  br label %.thread24

15:                                               ; preds = %8, %2
  %16 = tail call i32 @H5CX_push() #7
  %17 = icmp slt i32 %16, 0
  br i1 %17, label %18, label %22

18:                                               ; preds = %15
  %19 = load i64, ptr @H5E_FUNC_g, align 8
  %20 = load i64, ptr @H5E_CANTSET_g, align 8
  %21 = tail call i32 (ptr, ptr, i32, i64, i64, ptr, ...) @H5E_printf_stack(ptr noundef nonnull @.str.1, ptr noundef nonnull @__func__.H5Sselect_shape_same, i32 noundef 1878, i64 noundef %19, i64 noundef %20, ptr noundef nonnull @.str.3) #7
  br label %.thread24

22:                                               ; preds = %15
  %23 = tail call i32 @H5E_clear_stack() #7
  %24 = tail call ptr @H5I_object_verify(i64 noundef %0, i32 noundef 4) #7
  %25 = icmp eq ptr %24, null
  br i1 %25, label %26, label %30

26:                                               ; preds = %22
  %27 = load i64, ptr @H5E_DATASPACE_g, align 8
  %28 = load i64, ptr @H5E_BADTYPE_g, align 8
  %29 = tail call i32 (ptr, ptr, i32, i64, i64, ptr, ...) @H5E_printf_stack(ptr noundef nonnull @.str.1, ptr noundef nonnull @__func__.H5Sselect_shape_same, i32 noundef 1881, i64 noundef %27, i64 noundef %28, ptr noundef nonnull @.str.4) #7
  br label %.thread30

30:                                               ; preds = %22
  %31 = tail call ptr @H5I_object_verify(i64 noundef %1, i32 noundef 4) #7
  %32 = icmp eq ptr %31, null
  br i1 %32, label %33, label %37

33:                                               ; preds = %30
  %34 = load i64, ptr @H5E_DATASPACE_g, align 8
  %35 = load i64, ptr @H5E_BADTYPE_g, align 8
  %36 = tail call i32 (ptr, ptr, i32, i64, i64, ptr, ...) @H5E_printf_stack(ptr noundef nonnull @.str.1, ptr noundef nonnull @__func__.H5Sselect_shape_same, i32 noundef 1883, i64 noundef %34, i64 noundef %35, ptr noundef nonnull @.str.4) #7
  br label %.thread30

37:                                               ; preds = %30
  %38 = tail call i32 @H5S_select_shape_same(ptr noundef nonnull %24, ptr noundef nonnull %31)
  %39 = icmp slt i32 %38, 0
  br i1 %39, label %40, label %45

40:                                               ; preds = %37
  %41 = load i64, ptr @H5E_DATASPACE_g, align 8
  %42 = load i64, ptr @H5E_CANTCOMPARE_g, align 8
  %43 = tail call i32 (ptr, ptr, i32, i64, i64, ptr, ...) @H5E_printf_stack(ptr noundef nonnull @.str.1, ptr noundef nonnull @__func__.H5Sselect_shape_same, i32 noundef 1886, i64 noundef %41, i64 noundef %42, ptr noundef nonnull @.str.42) #7
  br label %.thread30

.thread30:                                        ; preds = %40, %33, %26
  %44 = tail call i32 @H5CX_pop(i1 noundef zeroext true) #7
  br label %.thread24

45:                                               ; preds = %37
  %46 = tail call i32 @H5CX_pop(i1 noundef zeroext true) #7
  br label %48

.thread24:                                        ; preds = %18, %11, %.thread30
  %47 = tail call i32 @H5E_dump_api_stack() #7
  br label %48

48:                                               ; preds = %45, %.thread24
  %.0121927 = phi i32 [ -1, %.thread24 ], [ %38, %45 ]
  ret i32 %.0121927
}